; Function Attrs: mustprogress nofree norecurse nosync nounwind willreturn memory(read, inaccessiblemem: none) uwtable
define i16 @_ZNK10OpenSubdiv6v3_6_03Vtr8internal5Level20getFaceCompositeVTagERNS1_10ConstArrayIiEE(ptr noundef nonnull readonly align 8 captures(none) dereferenceable(480) %0, ptr noundef nonnull readonly align 8 captures(none) dereferenceable(12) %1) local_unnamed_addr #13 align 2 {
  %3 = getelementptr inbounds nuw i8, ptr %0, i64 432
  %4 = load ptr, ptr %1, align 8
  %5 = load i32, ptr %4, align 4
  %6 = sext i32 %5 to i64
  %7 = load ptr, ptr %3, align 8
  %8 = getelementptr inbounds %"struct.OpenSubdiv::v3_6_0::Vtr::internal::Level::VTag", ptr %7, i64 %6
  %.0.copyload.i = load i16, ptr %8, align 2
  %9 = getelementptr inbounds nuw i8, ptr %1, i64 8
  %10 = load i32, ptr %9, align 8
  %11 = icmp sgt i32 %10, 1
  br i1 %11, label %.lr.ph.preheader, label %._crit_edge

.lr.ph.preheader:                                 ; preds = %2
  %wide.trip.count = zext nneg i32 %10 to i64
  br label %.lr.ph

.lr.ph:                                           ; preds = %.lr.ph.preheader, %.lr.ph
  %indvars.iv = phi i64 [ 1, %.lr.ph.preheader ], [ %indvars.iv.next, %.lr.ph ]
  %.0810 = phi i16 [ %.0.copyload.i, %.lr.ph.preheader ], [ %16, %.lr.ph ]
  %12 = getelementptr inbounds nuw i32, ptr %4, i64 %indvars.iv
  %13 = load i32, ptr %12, align 4
  %14 = sext i32 %13 to i64
  %15 = getelementptr inbounds %"struct.OpenSubdiv::v3_6_0::Vtr::internal::Level::VTag", ptr %7, i64 %14
  %.0.copyload.i9 = load i16, ptr %15, align 2
  %16 = or i16 %.0.copyload.i9, %.0810
  %indvars.iv.next = add nuw nsw i64 %indvars.iv, 1
  %exitcond.not = icmp eq i64 %indvars.iv.next, %wide.trip.count
  br i1 %exitcond.not, label %._crit_edge, label %.lr.ph, !llvm.loop !44

._crit_edge:                                      ; preds = %.lr.ph, %2
  %.08.lcssa = phi i16 [ %.0.copyload.i, %2 ], [ %16, %.lr.ph ]
  ret i16 %.08.lcssa
}